; Function Attrs: nounwind uwtable
define hidden i32 @opj_encoder_set_extra_options(ptr noundef %0, ptr noundef %1) local_unnamed_addr #2 {
  %.not = icmp eq ptr %0, null
  br i1 %.not, label %.thread, label %3

3:                                                ; preds = %2
  %4 = getelementptr inbounds nuw i8, ptr %0, i64 152
  %5 = load i32, ptr %4, align 8, !tbaa !15
  %.not10 = icmp eq i32 %5, 0
  br i1 %.not10, label %6, label %.thread

6:                                                ; preds = %3
  %7 = getelementptr inbounds nuw i8, ptr %0, i64 48
  %8 = load ptr, ptr %7, align 8, !tbaa !19
  %9 = getelementptr inbounds nuw i8, ptr %0, i64 96
  %10 = load ptr, ptr %9, align 8, !tbaa !21
  %11 = getelementptr inbounds nuw i8, ptr %0, i64 104
  %12 = tail call i32 %8(ptr noundef %10, ptr noundef %1, ptr noundef nonnull %11) #8
  br label %.thread

.thread:                                          ; preds = %3, %2, %6
  %.1 = phi i32 [ %12, %6 ], [ 0, %2 ], [ 0, %3 ]
  ret i32 %.1
}